target datalayout = "e-m:e-p270:32:32-p271:32:32-p272:64:64-i64:64-i128:128-f80:128-n8:16:32:64-S128"
target triple = "x86_64-pc-linux-gnu"

%"class.std::__cxx11::basic_string" = type { %"struct.std::__cxx11::basic_string<char>::_Alloc_hider", i64, %union.anon }
%"struct.std::__cxx11::basic_string<char>::_Alloc_hider" = type { ptr }
%union.anon = type { i64, [8 x i8] }
%"class.absl::debian2::AlphaNum" = type { %"class.absl::debian2::string_view", [32 x i8] }
%"class.absl::debian2::string_view" = type { ptr, i64 }
%class.anon = type { i8 }

@.str.96 = private unnamed_addr constant [9 x i8] c"Player (\00", align 1
@.str.97 = private unnamed_addr constant [16 x i8] c") unrecognized.\00", align 1

; Function Attrs: mustprogress nounwind uwtable
define linkonce_odr void @_ZZN4absl7debian211string_view19CheckLengthInternalEmENKUlvE_clEv(ptr noundef nonnull align 1 dereferenceable(1) %0) #4 comdat align 2 {
  %2 = alloca ptr, align 8
  store ptr %0, ptr %2, align 8
  br label %3

3:                                                ; preds = %1
  call void @llvm.trap()
  unreachable

4:                                                ; No predecessors!
  ret void
}

; Function Attrs: mustprogress uwtable
define linkonce_odr noundef i64 @_ZN4absl7debian211string_view19CheckLengthInternalEm(i64 noundef %0) #5 comdat align 2 {
  %2 = alloca i64, align 8
  %3 = alloca %class.anon, align 1
  store i64 %0, ptr %2, align 8
  %4 = load i64, ptr %2, align 8
  %5 = icmp ule i64 %4, 9223372036854775807
  br i1 %5, label %6, label %7

6:                                                ; preds = %1
  br label %8

7:                                                ; preds = %1
  call void @_ZZN4absl7debian211string_view19CheckLengthInternalEmENKUlvE_clEv(ptr noundef nonnull align 1 dereferenceable(1) %3)
  br label %8

8:                                                ; preds = %7, %6
  %9 = load i64, ptr %2, align 8
  ret i64 %9
}

; Function Attrs: mustprogress nounwind uwtable
define linkonce_odr noundef i64 @_ZN4absl7debian211string_view14StrlenInternalEPKc(ptr noundef %0) #4 comdat align 2 {
  %2 = alloca ptr, align 8
  store ptr %0, ptr %2, align 8
  %3 = load ptr, ptr %2, align 8
  %4 = call i64 @strlen(ptr noundef %3) #3
  ret i64 %4
}

; Function Attrs: mustprogress uwtable
define linkonce_odr void @_ZN4absl7debian211string_viewC2EPKcm(ptr noundef nonnull align 8 dereferenceable(16) %0, ptr noundef %1, i64 noundef %2) unnamed_addr #5 comdat align 2 {
  %4 = alloca ptr, align 8
  %5 = alloca ptr, align 8
  %6 = alloca i64, align 8
  store ptr %0, ptr %4, align 8
  store ptr %1, ptr %5, align 8
  store i64 %2, ptr %6, align 8
  %7 = load ptr, ptr %4, align 8
  %8 = getelementptr inbounds nuw %"class.absl::debian2::string_view", ptr %7, i32 0, i32 0
  %9 = load ptr, ptr %5, align 8
  store ptr %9, ptr %8, align 8
  %10 = getelementptr inbounds nuw %"class.absl::debian2::string_view", ptr %7, i32 0, i32 1
  %11 = load i64, ptr %6, align 8
  %12 = call noundef i64 @_ZN4absl7debian211string_view19CheckLengthInternalEm(i64 noundef %11)
  store i64 %12, ptr %10, align 8
  ret void
}

; Function Attrs: mustprogress uwtable
define linkonce_odr void @_ZN4absl7debian211string_viewC2EPKc(ptr noundef nonnull align 8 dereferenceable(16) %0, ptr noundef %1) unnamed_addr #5 comdat align 2 {
  %3 = alloca ptr, align 8
  %4 = alloca ptr, align 8
  store ptr %0, ptr %3, align 8
  store ptr %1, ptr %4, align 8
  %5 = load ptr, ptr %3, align 8
  %6 = getelementptr inbounds nuw %"class.absl::debian2::string_view", ptr %5, i32 0, i32 0
  %7 = load ptr, ptr %4, align 8
  store ptr %7, ptr %6, align 8
  %8 = getelementptr inbounds nuw %"class.absl::debian2::string_view", ptr %5, i32 0, i32 1
  %9 = load ptr, ptr %4, align 8
  %10 = icmp ne ptr %9, null
  br i1 %10, label %11, label %15

11:                                               ; preds = %2
  %12 = load ptr, ptr %4, align 8
  %13 = call noundef i64 @_ZN4absl7debian211string_view14StrlenInternalEPKc(ptr noundef %12)
  %14 = call noundef i64 @_ZN4absl7debian211string_view19CheckLengthInternalEm(i64 noundef %13)
  br label %16

15:                                               ; preds = %2
  br label %16

16:                                               ; preds = %15, %11
  %17 = phi i64 [ %14, %11 ], [ 0, %15 ]
  store i64 %17, ptr %8, align 8
  ret void
}

; Function Attrs: mustprogress uwtable
define linkonce_odr void @_ZN4absl7debian28AlphaNumC2Ei(ptr noundef nonnull align 8 dereferenceable(48) %0, i32 noundef %1) unnamed_addr #5 comdat align 2 {
  %3 = alloca ptr, align 8
  %4 = alloca i32, align 4
  store ptr %0, ptr %3, align 8
  store i32 %1, ptr %4, align 4
  %5 = load ptr, ptr %3, align 8
  %6 = getelementptr inbounds nuw %"class.absl::debian2::AlphaNum", ptr %5, i32 0, i32 0
  %7 = getelementptr inbounds nuw %"class.absl::debian2::AlphaNum", ptr %5, i32 0, i32 1
  %8 = getelementptr inbounds [32 x i8], ptr %7, i64 0, i64 0
  %9 = load i32, ptr %4, align 4
  %10 = getelementptr inbounds nuw %"class.absl::debian2::AlphaNum", ptr %5, i32 0, i32 1
  %11 = getelementptr inbounds [32 x i8], ptr %10, i64 0, i64 0
  %12 = call noundef ptr @_ZN4absl7debian216numbers_internal15FastIntToBufferEiPc(i32 noundef %9, ptr noundef %11)
  %13 = getelementptr inbounds nuw %"class.absl::debian2::AlphaNum", ptr %5, i32 0, i32 1
  %14 = getelementptr inbounds [32 x i8], ptr %13, i64 0, i64 0
  %15 = ptrtoint ptr %12 to i64
  %16 = ptrtoint ptr %14 to i64
  %17 = sub i64 %15, %16
  call void @_ZN4absl7debian211string_viewC2EPKcm(ptr noundef nonnull align 8 dereferenceable(16) %6, ptr noundef %8, i64 noundef %17)
  ret void
}

; Function Attrs: mustprogress uwtable
define linkonce_odr void @_ZN4absl7debian28AlphaNumC2EPKc(ptr noundef nonnull align 8 dereferenceable(48) %0, ptr noundef %1) unnamed_addr #5 comdat align 2 {
  %3 = alloca ptr, align 8
  %4 = alloca ptr, align 8
  store ptr %0, ptr %3, align 8
  store ptr %1, ptr %4, align 8
  %5 = load ptr, ptr %3, align 8
  %6 = getelementptr inbounds nuw %"class.absl::debian2::AlphaNum", ptr %5, i32 0, i32 0
  %7 = load ptr, ptr %4, align 8
  call void @_ZN4absl7debian211string_viewC2EPKc(ptr noundef nonnull align 8 dereferenceable(16) %6, ptr noundef %7)
  ret void
}

; Function Attrs: mustprogress uwtable
define noundef i32 @_ZNK10open_spiel10backgammon15BackgammonState8GetToPosEiii(ptr noundef nonnull align 8 dereferenceable(216) %0, i32 noundef %1, i32 noundef %2, i32 noundef %3) #5 align 2 personality ptr @__gxx_personality_v0 {
  %5 = alloca i32, align 4
  %6 = alloca ptr, align 8
  %7 = alloca i32, align 4
  %8 = alloca i32, align 4
  %9 = alloca i32, align 4
  %10 = alloca %"class.std::__cxx11::basic_string", align 8
  %11 = alloca %"class.absl::debian2::AlphaNum", align 8
  %12 = alloca %"class.absl::debian2::AlphaNum", align 8
  %13 = alloca %"class.absl::debian2::AlphaNum", align 8
  %14 = alloca ptr, align 8
  %15 = alloca i32, align 4
  store ptr %0, ptr %6, align 8
  store i32 %1, ptr %7, align 4
  store i32 %2, ptr %8, align 4
  store i32 %3, ptr %9, align 4
  %16 = load i32, ptr %7, align 4
  %17 = icmp eq i32 %16, 0
  br i1 %17, label %18, label %28

18:                                               ; preds = %4
  %19 = load i32, ptr %8, align 4
  %20 = icmp eq i32 %19, 100
  br i1 %20, label %21, label %22

21:                                               ; preds = %18
  br label %24

22:                                               ; preds = %18
  %23 = load i32, ptr %8, align 4
  br label %24

24:                                               ; preds = %22, %21
  %25 = phi i32 [ -1, %21 ], [ %23, %22 ]
  %26 = load i32, ptr %9, align 4
  %27 = add nsw i32 %25, %26
  store i32 %27, ptr %5, align 4
  br label %48

28:                                               ; preds = %4
  %29 = load i32, ptr %7, align 4
  %30 = icmp eq i32 %29, 1
  br i1 %30, label %31, label %41

31:                                               ; preds = %28
  %32 = load i32, ptr %8, align 4
  %33 = icmp eq i32 %32, 100
  br i1 %33, label %34, label %35

34:                                               ; preds = %31
  br label %37

35:                                               ; preds = %31
  %36 = load i32, ptr %8, align 4
  br label %37

37:                                               ; preds = %35, %34
  %38 = phi i32 [ 24, %34 ], [ %36, %35 ]
  %39 = load i32, ptr %9, align 4
  %40 = sub nsw i32 %38, %39
  store i32 %40, ptr %5, align 4
  br label %48

41:                                               ; preds = %28
  call void @_ZN4absl7debian28AlphaNumC2EPKc(ptr noundef nonnull align 8 dereferenceable(48) %11, ptr noundef @.str.96)
  %42 = load i32, ptr %7, align 4
  call void @_ZN4absl7debian28AlphaNumC2Ei(ptr noundef nonnull align 8 dereferenceable(48) %12, i32 noundef %42)
  call void @_ZN4absl7debian28AlphaNumC2EPKc(ptr noundef nonnull align 8 dereferenceable(48) %13, ptr noundef @.str.97)
  call void @_ZN4absl7debian26StrCatB5cxx11ERKNS0_8AlphaNumES3_S3_(ptr dead_on_unwind writable sret(%"class.std::__cxx11::basic_string") align 8 %10, ptr noundef nonnull align 8 dereferenceable(48) %11, ptr noundef nonnull align 8 dereferenceable(48) %12, ptr noundef nonnull align 8 dereferenceable(48) %13)
  invoke void @_ZN10open_spiel15SpielFatalErrorERKNSt7__cxx1112basic_stringIcSt11char_traitsIcESaIcEEE(ptr noundef nonnull align 8 dereferenceable(32) %10) #17
          to label %43 unwind label %44

43:                                               ; preds = %41
  unreachable

44:                                               ; preds = %41
  %45 = landingpad { ptr, i32 }
          cleanup
  %46 = extractvalue { ptr, i32 } %45, 0
  store ptr %46, ptr %14, align 8
  %47 = extractvalue { ptr, i32 } %45, 1
  store i32 %47, ptr %15, align 4
  call void @_ZNSt7__cxx1112basic_stringIcSt11char_traitsIcESaIcEED1Ev(ptr noundef nonnull align 8 dereferenceable(32) %10) #3
  br label %50

48:                                               ; preds = %37, %24
  %49 = load i32, ptr %5, align 4
  ret i32 %49

50:                                               ; preds = %44
  %51 = load ptr, ptr %14, align 8
  %52 = load i32, ptr %15, align 4
  %53 = insertvalue { ptr, i32 } poison, ptr %51, 0
  %54 = insertvalue { ptr, i32 } %53, i32 %52, 1
  resume { ptr, i32 } %54
}