; Function Attrs: mustprogress uwtable
define noundef i32 @_ZNK10open_spiel10backgammon15BackgammonState8GetToPosEiii(ptr nocapture noundef nonnull readnone align 8 dereferenceable(216) %0, i32 noundef %1, i32 noundef %2, i32 noundef %3) local_unnamed_addr #4 align 2 personality ptr @__gxx_personality_v0 {
  %5 = alloca %"class.std::__cxx11::basic_string", align 8
  %6 = alloca %"class.absl::debian2::AlphaNum", align 8
  %7 = alloca %"class.absl::debian2::AlphaNum", align 8
  %8 = alloca %"class.absl::debian2::AlphaNum", align 8
  switch i32 %1, label %_ZN4absl7debian28AlphaNumC2EPKc.exit [
    i32 0, label %9
    i32 1, label %13
  ]

9:                                                ; preds = %4
  %10 = icmp eq i32 %2, 100
  %11 = select i1 %10, i32 -1, i32 %2
  %12 = add nsw i32 %11, %3
  br label %30

13:                                               ; preds = %4
  %14 = icmp eq i32 %2, 100
  %15 = select i1 %14, i32 24, i32 %2
  %16 = sub nsw i32 %15, %3
  br label %30

_ZN4absl7debian28AlphaNumC2EPKc.exit:             ; preds = %4
  store ptr @.str.96, ptr %6, align 8
  %17 = getelementptr inbounds nuw i8, ptr %6, i64 8
  store i64 8, ptr %17, align 8
  %18 = getelementptr inbounds nuw i8, ptr %7, i64 16
  %19 = call noundef ptr @_ZN4absl7debian216numbers_internal15FastIntToBufferEiPc(i32 noundef %1, ptr noundef nonnull %18)
  %20 = ptrtoint ptr %19 to i64
  %21 = ptrtoint ptr %18 to i64
  %22 = sub i64 %20, %21
  store ptr %18, ptr %7, align 8
  %23 = icmp sgt i64 %22, -1
  br i1 %23, label %_ZN4absl7debian28AlphaNumC2Ei.exit, label %24

24:                                               ; preds = %_ZN4absl7debian28AlphaNumC2EPKc.exit
  call void @llvm.trap()
  unreachable

_ZN4absl7debian28AlphaNumC2Ei.exit:               ; preds = %_ZN4absl7debian28AlphaNumC2EPKc.exit
  %25 = getelementptr inbounds nuw i8, ptr %7, i64 8
  store i64 %22, ptr %25, align 8
  store ptr @.str.97, ptr %8, align 8
  %26 = getelementptr inbounds nuw i8, ptr %8, i64 8
  store i64 15, ptr %26, align 8
  call void @_ZN4absl7debian26StrCatB5cxx11ERKNS0_8AlphaNumES3_S3_(ptr dead_on_unwind nonnull writable sret(%"class.std::__cxx11::basic_string") align 8 %5, ptr noundef nonnull align 8 dereferenceable(48) %6, ptr noundef nonnull align 8 dereferenceable(48) %7, ptr noundef nonnull align 8 dereferenceable(48) %8)
  invoke void @_ZN10open_spiel15SpielFatalErrorERKNSt7__cxx1112basic_stringIcSt11char_traitsIcESaIcEEE(ptr noundef nonnull align 8 dereferenceable(32) %5) #29
          to label %27 unwind label %28

27:                                               ; preds = %_ZN4absl7debian28AlphaNumC2Ei.exit
  unreachable

28:                                               ; preds = %_ZN4absl7debian28AlphaNumC2Ei.exit
  %29 = landingpad { ptr, i32 }
          cleanup
  call void @_ZNSt7__cxx1112basic_stringIcSt11char_traitsIcESaIcEED1Ev(ptr noundef nonnull align 8 dereferenceable(32) %5) #30
  resume { ptr, i32 } %29

30:                                               ; preds = %13, %9
  %.0 = phi i32 [ %12, %9 ], [ %16, %13 ]
  ret i32 %.0
}